target datalayout = "e-m:e-p270:32:32-p271:32:32-p272:64:64-i64:64-i128:128-f80:128-n8:16:32:64-S128"
target triple = "x86_64-pc-linux-gnu"

%struct._lv_obj_t = type { ptr, ptr, ptr, ptr, ptr, %struct.lv_area_t, i32, i16, i16 }
%struct.lv_area_t = type { i32, i32, i32, i32 }
%union.lv_style_value_t = type { ptr }

; Function Attrs: inlinehint nounwind uwtable
define internal i32 @lv_obj_get_style_pad_left(ptr noundef %0, i32 noundef %1) #3 {
  %3 = alloca ptr, align 8
  %4 = alloca i32, align 4
  %5 = alloca %union.lv_style_value_t, align 8
  store ptr %0, ptr %3, align 8, !tbaa !8
  store i32 %1, ptr %4, align 4, !tbaa !17
  call void @llvm.lifetime.start.p0(i64 8, ptr %5) #5
  %6 = load ptr, ptr %3, align 8, !tbaa !8
  %7 = load i32, ptr %4, align 4, !tbaa !17
  %8 = call ptr @lv_obj_get_style_prop(ptr noundef %6, i32 noundef %7, i8 noundef zeroext 18)
  %9 = getelementptr inbounds nuw %union.lv_style_value_t, ptr %5, i32 0, i32 0
  store ptr %8, ptr %9, align 8
  %10 = load i32, ptr %5, align 8, !tbaa !54
  call void @llvm.lifetime.end.p0(i64 8, ptr %5) #5
  ret i32 %10
}

; Function Attrs: inlinehint nounwind uwtable
define internal i32 @lv_obj_get_style_pad_top(ptr noundef %0, i32 noundef %1) #3 {
  %3 = alloca ptr, align 8
  %4 = alloca i32, align 4
  %5 = alloca %union.lv_style_value_t, align 8
  store ptr %0, ptr %3, align 8, !tbaa !8
  store i32 %1, ptr %4, align 4, !tbaa !17
  call void @llvm.lifetime.start.p0(i64 8, ptr %5) #5
  %6 = load ptr, ptr %3, align 8, !tbaa !8
  %7 = load i32, ptr %4, align 4, !tbaa !17
  %8 = call ptr @lv_obj_get_style_prop(ptr noundef %6, i32 noundef %7, i8 noundef zeroext 16)
  %9 = getelementptr inbounds nuw %union.lv_style_value_t, ptr %5, i32 0, i32 0
  store ptr %8, ptr %9, align 8
  %10 = load i32, ptr %5, align 8, !tbaa !54
  call void @llvm.lifetime.end.p0(i64 8, ptr %5) #5
  ret i32 %10
}

; Function Attrs: nounwind uwtable
define internal void @lv_obj_constructor(ptr noundef %0, ptr noundef %1) #0 {
  %3 = alloca ptr, align 8
  %4 = alloca ptr, align 8
  %5 = alloca ptr, align 8
  %6 = alloca i32, align 4
  %7 = alloca i32, align 4
  store ptr %0, ptr %3, align 8, !tbaa !3
  store ptr %1, ptr %4, align 8, !tbaa !8
  call void @llvm.lifetime.start.p0(i64 8, ptr %5) #5
  %8 = load ptr, ptr %4, align 8, !tbaa !8
  %9 = getelementptr inbounds nuw %struct._lv_obj_t, ptr %8, i32 0, i32 1
  %10 = load ptr, ptr %9, align 8, !tbaa !10
  store ptr %10, ptr %5, align 8, !tbaa !8
  %11 = load ptr, ptr %5, align 8, !tbaa !8
  %12 = icmp ne ptr %11, null
  br i1 %12, label %13, label %58

13:                                               ; preds = %2
  call void @llvm.lifetime.start.p0(i64 4, ptr %6) #5
  %14 = load ptr, ptr %5, align 8, !tbaa !8
  %15 = call i32 @lv_obj_get_scroll_left(ptr noundef %14)
  store i32 %15, ptr %6, align 4, !tbaa !17
  call void @llvm.lifetime.start.p0(i64 4, ptr %7) #5
  %16 = load ptr, ptr %5, align 8, !tbaa !8
  %17 = call i32 @lv_obj_get_scroll_top(ptr noundef %16)
  store i32 %17, ptr %7, align 4, !tbaa !17
  %18 = load ptr, ptr %5, align 8, !tbaa !8
  %19 = getelementptr inbounds nuw %struct._lv_obj_t, ptr %18, i32 0, i32 5
  %20 = getelementptr inbounds nuw %struct.lv_area_t, ptr %19, i32 0, i32 1
  %21 = load i32, ptr %20, align 4, !tbaa !18
  %22 = load ptr, ptr %5, align 8, !tbaa !8
  %23 = call i32 @lv_obj_get_style_pad_top(ptr noundef %22, i32 noundef 0)
  %24 = add nsw i32 %21, %23
  %25 = load i32, ptr %7, align 4, !tbaa !17
  %26 = sub nsw i32 %24, %25
  %27 = load ptr, ptr %4, align 8, !tbaa !8
  %28 = getelementptr inbounds nuw %struct._lv_obj_t, ptr %27, i32 0, i32 5
  %29 = getelementptr inbounds nuw %struct.lv_area_t, ptr %28, i32 0, i32 1
  store i32 %26, ptr %29, align 4, !tbaa !18
  %30 = load ptr, ptr %4, align 8, !tbaa !8
  %31 = getelementptr inbounds nuw %struct._lv_obj_t, ptr %30, i32 0, i32 5
  %32 = getelementptr inbounds nuw %struct.lv_area_t, ptr %31, i32 0, i32 1
  %33 = load i32, ptr %32, align 4, !tbaa !18
  %34 = sub nsw i32 %33, 1
  %35 = load ptr, ptr %4, align 8, !tbaa !8
  %36 = getelementptr inbounds nuw %struct._lv_obj_t, ptr %35, i32 0, i32 5
  %37 = getelementptr inbounds nuw %struct.lv_area_t, ptr %36, i32 0, i32 3
  store i32 %34, ptr %37, align 4, !tbaa !19
  %38 = load ptr, ptr %5, align 8, !tbaa !8
  %39 = getelementptr inbounds nuw %struct._lv_obj_t, ptr %38, i32 0, i32 5
  %40 = getelementptr inbounds nuw %struct.lv_area_t, ptr %39, i32 0, i32 0
  %41 = load i32, ptr %40, align 8, !tbaa !20
  %42 = load ptr, ptr %5, align 8, !tbaa !8
  %43 = call i32 @lv_obj_get_style_pad_left(ptr noundef %42, i32 noundef 0)
  %44 = add nsw i32 %41, %43
  %45 = load i32, ptr %6, align 4, !tbaa !17
  %46 = sub nsw i32 %44, %45
  %47 = load ptr, ptr %4, align 8, !tbaa !8
  %48 = getelementptr inbounds nuw %struct._lv_obj_t, ptr %47, i32 0, i32 5
  %49 = getelementptr inbounds nuw %struct.lv_area_t, ptr %48, i32 0, i32 0
  store i32 %46, ptr %49, align 8, !tbaa !20
  %50 = load ptr, ptr %4, align 8, !tbaa !8
  %51 = getelementptr inbounds nuw %struct._lv_obj_t, ptr %50, i32 0, i32 5
  %52 = getelementptr inbounds nuw %struct.lv_area_t, ptr %51, i32 0, i32 0
  %53 = load i32, ptr %52, align 8, !tbaa !20
  %54 = sub nsw i32 %53, 1
  %55 = load ptr, ptr %4, align 8, !tbaa !8
  %56 = getelementptr inbounds nuw %struct._lv_obj_t, ptr %55, i32 0, i32 5
  %57 = getelementptr inbounds nuw %struct.lv_area_t, ptr %56, i32 0, i32 2
  store i32 %54, ptr %57, align 8, !tbaa !21
  call void @llvm.lifetime.end.p0(i64 4, ptr %7) #5
  call void @llvm.lifetime.end.p0(i64 4, ptr %6) #5
  br label %58

58:                                               ; preds = %13, %2
  %59 = load ptr, ptr %4, align 8, !tbaa !8
  %60 = getelementptr inbounds nuw %struct._lv_obj_t, ptr %59, i32 0, i32 6
  store i32 2, ptr %60, align 8, !tbaa !22
  %61 = load ptr, ptr %4, align 8, !tbaa !8
  %62 = getelementptr inbounds nuw %struct._lv_obj_t, ptr %61, i32 0, i32 6
  %63 = load i32, ptr %62, align 8, !tbaa !22
  %64 = or i32 %63, 4096
  store i32 %64, ptr %62, align 8, !tbaa !22
  %65 = load ptr, ptr %5, align 8, !tbaa !8
  %66 = icmp ne ptr %65, null
  br i1 %66, label %67, label %72

67:                                               ; preds = %58
  %68 = load ptr, ptr %4, align 8, !tbaa !8
  %69 = getelementptr inbounds nuw %struct._lv_obj_t, ptr %68, i32 0, i32 6
  %70 = load i32, ptr %69, align 8, !tbaa !22
  %71 = or i32 %70, 8192
  store i32 %71, ptr %69, align 8, !tbaa !22
  br label %72

72:                                               ; preds = %67, %58
  %73 = load ptr, ptr %5, align 8, !tbaa !8
  %74 = icmp ne ptr %73, null
  br i1 %74, label %75, label %80

75:                                               ; preds = %72
  %76 = load ptr, ptr %4, align 8, !tbaa !8
  %77 = getelementptr inbounds nuw %struct._lv_obj_t, ptr %76, i32 0, i32 6
  %78 = load i32, ptr %77, align 8, !tbaa !22
  %79 = or i32 %78, 768
  store i32 %79, ptr %77, align 8, !tbaa !22
  br label %80

80:                                               ; preds = %75, %72
  %81 = load ptr, ptr %4, align 8, !tbaa !8
  %82 = getelementptr inbounds nuw %struct._lv_obj_t, ptr %81, i32 0, i32 6
  %83 = load i32, ptr %82, align 8, !tbaa !22
  %84 = or i32 %83, 4
  store i32 %84, ptr %82, align 8, !tbaa !22
  %85 = load ptr, ptr %4, align 8, !tbaa !8
  %86 = getelementptr inbounds nuw %struct._lv_obj_t, ptr %85, i32 0, i32 6
  %87 = load i32, ptr %86, align 8, !tbaa !22
  %88 = or i32 %87, 16
  store i32 %88, ptr %86, align 8, !tbaa !22
  %89 = load ptr, ptr %4, align 8, !tbaa !8
  %90 = getelementptr inbounds nuw %struct._lv_obj_t, ptr %89, i32 0, i32 6
  %91 = load i32, ptr %90, align 8, !tbaa !22
  %92 = or i32 %91, 32
  store i32 %92, ptr %90, align 8, !tbaa !22
  %93 = load ptr, ptr %4, align 8, !tbaa !8
  %94 = getelementptr inbounds nuw %struct._lv_obj_t, ptr %93, i32 0, i32 6
  %95 = load i32, ptr %94, align 8, !tbaa !22
  %96 = or i32 %95, 64
  store i32 %96, ptr %94, align 8, !tbaa !22
  %97 = load ptr, ptr %4, align 8, !tbaa !8
  %98 = getelementptr inbounds nuw %struct._lv_obj_t, ptr %97, i32 0, i32 6
  %99 = load i32, ptr %98, align 8, !tbaa !22
  %100 = or i32 %99, 2048
  store i32 %100, ptr %98, align 8, !tbaa !22
  %101 = load ptr, ptr %5, align 8, !tbaa !8
  %102 = icmp ne ptr %101, null
  br i1 %102, label %103, label %108

103:                                              ; preds = %80
  %104 = load ptr, ptr %4, align 8, !tbaa !8
  %105 = getelementptr inbounds nuw %struct._lv_obj_t, ptr %104, i32 0, i32 6
  %106 = load i32, ptr %105, align 8, !tbaa !22
  %107 = or i32 %106, 32768
  store i32 %107, ptr %105, align 8, !tbaa !22
  br label %108

108:                                              ; preds = %103, %80
  call void @llvm.lifetime.end.p0(i64 8, ptr %5) #5
  ret void
}