; Function Attrs: nounwind uwtable
define internal void @lv_obj_constructor(ptr readnone captures(none) %0, ptr noundef captures(none) initializes((56, 60)) %1) #0 {
  %3 = getelementptr inbounds nuw i8, ptr %1, i64 8
  %4 = load ptr, ptr %3, align 8, !tbaa !3
  %.not = icmp eq ptr %4, null
  br i1 %.not, label %.thread, label %5

5:                                                ; preds = %2
  %6 = tail call i32 @lv_obj_get_scroll_left(ptr noundef nonnull %4) #8
  %7 = tail call i32 @lv_obj_get_scroll_top(ptr noundef nonnull %4) #8
  %8 = getelementptr inbounds nuw i8, ptr %4, i64 40
  %9 = getelementptr inbounds nuw i8, ptr %4, i64 44
  %10 = load i32, ptr %9, align 4, !tbaa !15
  %11 = tail call ptr @lv_obj_get_style_prop(ptr noundef nonnull %4, i32 noundef 0, i8 noundef zeroext 16) #8
  %12 = ptrtoint ptr %11 to i64
  %.sroa.0.0.extract.trunc.i = trunc i64 %12 to i32
  %13 = sub i32 %10, %7
  %14 = add i32 %13, %.sroa.0.0.extract.trunc.i
  %15 = getelementptr inbounds nuw i8, ptr %1, i64 40
  %16 = getelementptr inbounds nuw i8, ptr %1, i64 44
  store i32 %14, ptr %16, align 4, !tbaa !15
  %17 = add nsw i32 %14, -1
  %18 = getelementptr inbounds nuw i8, ptr %1, i64 52
  store i32 %17, ptr %18, align 4, !tbaa !16
  %19 = load i32, ptr %8, align 8, !tbaa !17
  %20 = tail call ptr @lv_obj_get_style_prop(ptr noundef nonnull %4, i32 noundef 0, i8 noundef zeroext 18) #8
  %21 = ptrtoint ptr %20 to i64
  %.sroa.0.0.extract.trunc.i30 = trunc i64 %21 to i32
  %22 = sub i32 %19, %6
  %23 = add i32 %22, %.sroa.0.0.extract.trunc.i30
  store i32 %23, ptr %15, align 8, !tbaa !17
  %24 = add nsw i32 %23, -1
  %25 = getelementptr inbounds nuw i8, ptr %1, i64 48
  store i32 %24, ptr %25, align 8, !tbaa !18
  br label %.thread

.thread:                                          ; preds = %2, %5
  %spec.select29 = phi i32 [ 47990, %5 ], [ 6262, %2 ]
  %26 = getelementptr inbounds nuw i8, ptr %1, i64 56
  store i32 %spec.select29, ptr %26, align 8, !tbaa !19
  ret void
}